target datalayout = "e-m:e-p270:32:32-p271:32:32-p272:64:64-i64:64-i128:128-f80:128-n8:16:32:64-S128"
target triple = "x86_64-pc-linux-gnu"

%"class.llvm::TargetPassConfig" = type <{ %"class.llvm::ImmutablePass.base", [4 x i8], ptr, ptr, ptr, ptr, ptr, i32, i32, i32, i32, i32, i32, i32, i32, i8, i8, i8, i8, [4 x i8], ptr, ptr, i8, i8, i8, i8, i8, i8, [2 x i8] }>
%"class.llvm::ImmutablePass.base" = type { %"class.llvm::ModulePass.base" }
%"class.llvm::ModulePass.base" = type { %"class.llvm::Pass.base" }
%"class.llvm::Pass.base" = type <{ ptr, ptr, ptr, i32 }>

; Function Attrs: mustprogress nounwind uwtable
define dso_local void @_ZN4llvm16TargetPassConfig15addDebugifyPassEv(ptr noundef nonnull align 8 dereferenceable(134) %0) #1 align 2 {
  %2 = alloca ptr, align 8
  store ptr %0, ptr %2, align 8
  %3 = load ptr, ptr %2, align 8
  %4 = getelementptr inbounds nuw %"class.llvm::TargetPassConfig", ptr %3, i32 0, i32 2
  %5 = load ptr, ptr %4, align 8
  %6 = call noundef ptr @_ZN4llvm31createDebugifyMachineModulePassEv()
  %7 = load ptr, ptr %5, align 8
  %8 = getelementptr inbounds ptr, ptr %7, i64 2
  %9 = load ptr, ptr %8, align 8
  call void %9(ptr noundef nonnull align 8 dereferenceable(8) %5, ptr noundef %6)
  ret void
}