; Function Attrs: mustprogress nounwind uwtable
define dso_local void @_ZN4llvm16TargetPassConfig15addDebugifyPassEv(ptr nocapture noundef nonnull readonly align 8 dereferenceable(134) %0) local_unnamed_addr #0 align 2 {
  %2 = getelementptr inbounds nuw i8, ptr %0, i64 32
  %3 = load ptr, ptr %2, align 8
  %4 = tail call noundef ptr @_ZN4llvm31createDebugifyMachineModulePassEv() #26
  %5 = load ptr, ptr %3, align 8
  %6 = getelementptr inbounds i8, ptr %5, i64 16
  %7 = load ptr, ptr %6, align 8
  tail call void %7(ptr noundef nonnull align 8 dereferenceable(8) %3, ptr noundef %4) #26
  ret void
}